; ModuleID = 'source-C-CXX/48/1390.cpp'
source_filename = "source-C-CXX/48/1390.cpp"
target datalayout = "e-m:e-p270:32:32-p271:32:32-p272:64:64-i64:64-f80:128-n8:16:32:64-S128"
target triple = "x86_64-pc-linux-gnu"

%"class.std::ios_base::Init" = type { i8 }
%"class.std::basic_istream" = type { i32 (...)**, i64, %"class.std::basic_ios" }
%"class.std::basic_ios" = type { %"class.std::ios_base", %"class.std::basic_ostream"*, i8, i8, %"class.std::basic_streambuf"*, %"class.std::ctype"*, %"class.std::num_put"*, %"class.std::num_get"* }
%"class.std::ios_base" = type { i32 (...)**, i64, i64, i32, i32, i32, %"struct.std::ios_base::_Callback_list"*, %"struct.std::ios_base::_Words", [8 x %"struct.std::ios_base::_Words"], i32, %"struct.std::ios_base::_Words"*, %"class.std::locale" }
%"struct.std::ios_base::_Callback_list" = type { %"struct.std::ios_base::_Callback_list"*, void (i32, %"class.std::ios_base"*, i32)*, i32, i32 }
%"struct.std::ios_base::_Words" = type { i8*, i64 }
%"class.std::locale" = type { %"class.std::locale::_Impl"* }
%"class.std::locale::_Impl" = type { i32, %"class.std::locale::facet"**, i64, %"class.std::locale::facet"**, i8** }
%"class.std::locale::facet" = type <{ i32 (...)**, i32, [4 x i8] }>
%"class.std::basic_ostream" = type { i32 (...)**, %"class.std::basic_ios" }
%"class.std::basic_streambuf" = type { i32 (...)**, i8*, i8*, i8*, i8*, i8*, i8*, %"class.std::locale" }
%"class.std::ctype" = type <{ %"class.std::locale::facet.base", [4 x i8], %struct.__locale_struct*, i8, [7 x i8], i32*, i32*, i16*, i8, [256 x i8], [256 x i8], i8, [6 x i8] }>
%"class.std::locale::facet.base" = type <{ i32 (...)**, i32 }>
%struct.__locale_struct = type { [13 x %struct.__locale_data*], i16*, i32*, i32*, [13 x i8*] }
%struct.__locale_data = type opaque
%"class.std::num_put" = type { %"class.std::locale::facet.base", [4 x i8] }
%"class.std::num_get" = type { %"class.std::locale::facet.base", [4 x i8] }

@_ZStL8__ioinit = internal global %"class.std::ios_base::Init" zeroinitializer, align 1
@__dso_handle = external hidden global i8
@_ZSt3cin = external global %"class.std::basic_istream", align 8
@_ZSt4cout = external global %"class.std::basic_ostream", align 8
@llvm.global_ctors = appending global [1 x { i32, void ()*, i8* }] [{ i32, void ()*, i8* } { i32 65535, void ()* @_GLOBAL__sub_I_1390.cpp, i8* null }]

declare void @_ZNSt8ios_base4InitC1Ev(%"class.std::ios_base::Init"* nonnull align 1 dereferenceable(1)) unnamed_addr #0

; Function Attrs: nounwind
declare void @_ZNSt8ios_base4InitD1Ev(%"class.std::ios_base::Init"* nonnull align 1 dereferenceable(1)) unnamed_addr #1

; Function Attrs: nofree nounwind
declare i32 @__cxa_atexit(void (i8*)*, i8*, i8*) local_unnamed_addr #2

; Function Attrs: mustprogress norecurse sspstrong uwtable
define dso_local i32 @main() local_unnamed_addr #3 {
  %1 = alloca i8, align 1
  %2 = alloca [505 x i8], align 16
  %3 = getelementptr inbounds [505 x i8], [505 x i8]* %2, i64 0, i64 0
  call void @llvm.lifetime.start.p0i8(i64 505, i8* nonnull %3) #8
  call void @_ZSt17__istream_extractRSiPcl(%"class.std::basic_istream"* nonnull align 8 dereferenceable(16) @_ZSt3cin, i8* nonnull %3, i64 505)
  %4 = call i64 @strlen(i8* noundef nonnull %3) #9
  %5 = trunc i64 %4 to i32
  %6 = icmp sgt i32 %5, 2
  br i1 %6, label %7, label %88

7:                                                ; preds = %0
  %8 = and i64 %4, 4294967295
  br label %9

9:                                                ; preds = %7, %83
  %10 = phi i32 [ %5, %7 ], [ %14, %83 ]
  %11 = phi i64 [ 2, %7 ], [ %86, %83 ]
  %12 = phi i32 [ 1, %7 ], [ %85, %83 ]
  %13 = phi i32 [ 2, %7 ], [ %84, %83 ]
  %14 = add i32 %10, -1
  %15 = icmp sgt i32 %13, %5
  br i1 %15, label %83, label %16

16:                                               ; preds = %9
  %17 = zext i32 %14 to i64
  br label %18

18:                                               ; preds = %16, %77
  %19 = phi i64 [ %11, %16 ], [ %81, %77 ]
  %20 = phi i64 [ 0, %16 ], [ %80, %77 ]
  %21 = phi i32 [ %12, %16 ], [ %79, %77 ]
  %22 = phi i32 [ 0, %16 ], [ %78, %77 ]
  %23 = add nuw nsw i32 %22, %13
  %24 = add nsw i32 %23, -1
  %25 = icmp sgt i32 %24, %22
  br i1 %25, label %27, label %26

26:                                               ; preds = %30, %18
  br label %70

27:                                               ; preds = %18
  %28 = sext i32 %21 to i64
  %29 = zext i32 %21 to i64
  br label %34

30:                                               ; preds = %34
  %31 = add nuw nsw i64 %35, 1
  %32 = add nsw i64 %36, -1
  %33 = icmp eq i64 %31, %29
  br i1 %33, label %26, label %34, !llvm.loop !5

34:                                               ; preds = %27, %30
  %35 = phi i64 [ %20, %27 ], [ %31, %30 ]
  %36 = phi i64 [ %28, %27 ], [ %32, %30 ]
  %37 = getelementptr inbounds [505 x i8], [505 x i8]* %2, i64 0, i64 %35
  %38 = load i8, i8* %37, align 1, !tbaa !7
  %39 = getelementptr inbounds [505 x i8], [505 x i8]* %2, i64 0, i64 %36
  %40 = load i8, i8* %39, align 1, !tbaa !7
  %41 = icmp eq i8 %38, %40
  br i1 %41, label %30, label %77

42:                                               ; preds = %70
  %43 = load i8*, i8** bitcast (%"class.std::basic_ostream"* @_ZSt4cout to i8**), align 8, !tbaa !10
  %44 = getelementptr i8, i8* %43, i64 -24
  %45 = bitcast i8* %44 to i64*
  %46 = load i64, i64* %45, align 8
  %47 = add nsw i64 %46, 240
  %48 = getelementptr inbounds i8, i8* bitcast (%"class.std::basic_ostream"* @_ZSt4cout to i8*), i64 %47
  %49 = bitcast i8* %48 to %"class.std::ctype"**
  %50 = load %"class.std::ctype"*, %"class.std::ctype"** %49, align 8, !tbaa !12
  %51 = icmp eq %"class.std::ctype"* %50, null
  br i1 %51, label %52, label %53

52:                                               ; preds = %42
  call void @_ZSt16__throw_bad_castv() #10
  unreachable

53:                                               ; preds = %42
  %54 = getelementptr inbounds %"class.std::ctype", %"class.std::ctype"* %50, i64 0, i32 8
  %55 = load i8, i8* %54, align 8, !tbaa !16
  %56 = icmp eq i8 %55, 0
  br i1 %56, label %60, label %57

57:                                               ; preds = %53
  %58 = getelementptr inbounds %"class.std::ctype", %"class.std::ctype"* %50, i64 0, i32 9, i64 10
  %59 = load i8, i8* %58, align 1, !tbaa !7
  br label %66

60:                                               ; preds = %53
  call void @_ZNKSt5ctypeIcE13_M_widen_initEv(%"class.std::ctype"* nonnull align 8 dereferenceable(570) %50)
  %61 = bitcast %"class.std::ctype"* %50 to i8 (%"class.std::ctype"*, i8)***
  %62 = load i8 (%"class.std::ctype"*, i8)**, i8 (%"class.std::ctype"*, i8)*** %61, align 8, !tbaa !10
  %63 = getelementptr inbounds i8 (%"class.std::ctype"*, i8)*, i8 (%"class.std::ctype"*, i8)** %62, i64 6
  %64 = load i8 (%"class.std::ctype"*, i8)*, i8 (%"class.std::ctype"*, i8)** %63, align 8
  %65 = call signext i8 %64(%"class.std::ctype"* nonnull align 8 dereferenceable(570) %50, i8 signext 10)
  br label %66

66:                                               ; preds = %57, %60
  %67 = phi i8 [ %59, %57 ], [ %65, %60 ]
  %68 = call nonnull align 8 dereferenceable(8) %"class.std::basic_ostream"* @_ZNSo3putEc(%"class.std::basic_ostream"* nonnull align 8 dereferenceable(8) @_ZSt4cout, i8 signext %67)
  %69 = call nonnull align 8 dereferenceable(8) %"class.std::basic_ostream"* @_ZNSo5flushEv(%"class.std::basic_ostream"* nonnull align 8 dereferenceable(8) %68)
  br label %77

70:                                               ; preds = %26, %70
  %71 = phi i64 [ %75, %70 ], [ %20, %26 ]
  %72 = getelementptr inbounds [505 x i8], [505 x i8]* %2, i64 0, i64 %71
  %73 = load i8, i8* %72, align 1, !tbaa !7
  call void @llvm.lifetime.start.p0i8(i64 1, i8* nonnull %1)
  store i8 %73, i8* %1, align 1, !tbaa !7
  %74 = call nonnull align 8 dereferenceable(8) %"class.std::basic_ostream"* @_ZSt16__ostream_insertIcSt11char_traitsIcEERSt13basic_ostreamIT_T0_ES6_PKS3_l(%"class.std::basic_ostream"* nonnull align 8 dereferenceable(8) @_ZSt4cout, i8* nonnull %1, i64 1)
  call void @llvm.lifetime.end.p0i8(i64 1, i8* nonnull %1)
  %75 = add nuw nsw i64 %71, 1
  %76 = icmp eq i64 %75, %19
  br i1 %76, label %42, label %70, !llvm.loop !18

77:                                               ; preds = %34, %66
  %78 = add nuw nsw i32 %22, 1
  %79 = add nuw i32 %21, 1
  %80 = add nuw nsw i64 %20, 1
  %81 = add nuw nsw i64 %19, 1
  %82 = icmp eq i64 %80, %17
  br i1 %82, label %83, label %18, !llvm.loop !19

83:                                               ; preds = %77, %9
  %84 = add nuw nsw i32 %13, 1
  %85 = add nuw nsw i32 %12, 1
  %86 = add nuw nsw i64 %11, 1
  %87 = icmp eq i64 %86, %8
  br i1 %87, label %88, label %9, !llvm.loop !20

88:                                               ; preds = %83, %0
  call void @llvm.lifetime.end.p0i8(i64 505, i8* nonnull %3) #8
  ret i32 0
}

; Function Attrs: argmemonly mustprogress nofree nosync nounwind willreturn
declare void @llvm.lifetime.start.p0i8(i64 immarg, i8* nocapture) #4

; Function Attrs: argmemonly mustprogress nofree nounwind readonly willreturn
declare i64 @strlen(i8* nocapture) local_unnamed_addr #5

; Function Attrs: argmemonly mustprogress nofree nosync nounwind willreturn
declare void @llvm.lifetime.end.p0i8(i64 immarg, i8* nocapture) #4

declare void @_ZSt17__istream_extractRSiPcl(%"class.std::basic_istream"* nonnull align 8 dereferenceable(16), i8*, i64) local_unnamed_addr #0

declare nonnull align 8 dereferenceable(8) %"class.std::basic_ostream"* @_ZSt16__ostream_insertIcSt11char_traitsIcEERSt13basic_ostreamIT_T0_ES6_PKS3_l(%"class.std::basic_ostream"* nonnull align 8 dereferenceable(8), i8*, i64) local_unnamed_addr #0

declare nonnull align 8 dereferenceable(8) %"class.std::basic_ostream"* @_ZNSo3putEc(%"class.std::basic_ostream"* nonnull align 8 dereferenceable(8), i8 signext) local_unnamed_addr #0

declare nonnull align 8 dereferenceable(8) %"class.std::basic_ostream"* @_ZNSo5flushEv(%"class.std::basic_ostream"* nonnull align 8 dereferenceable(8)) local_unnamed_addr #0

; Function Attrs: noreturn
declare void @_ZSt16__throw_bad_castv() local_unnamed_addr #6

declare void @_ZNKSt5ctypeIcE13_M_widen_initEv(%"class.std::ctype"* nonnull align 8 dereferenceable(570)) local_unnamed_addr #0

; Function Attrs: sspstrong uwtable
define internal void @_GLOBAL__sub_I_1390.cpp() #7 section ".text.startup" {
  tail call void @_ZNSt8ios_base4InitC1Ev(%"class.std::ios_base::Init"* nonnull align 1 dereferenceable(1) @_ZStL8__ioinit)
  %1 = tail call i32 @__cxa_atexit(void (i8*)* bitcast (void (%"class.std::ios_base::Init"*)* @_ZNSt8ios_base4InitD1Ev to void (i8*)*), i8* getelementptr inbounds (%"class.std::ios_base::Init", %"class.std::ios_base::Init"* @_ZStL8__ioinit, i64 0, i32 0), i8* nonnull @__dso_handle) #8
  ret void
}


!llvm.module.flags = !{!0, !1, !2, !3}
!llvm.ident = !{!4}

!0 = !{i32 1, !"wchar_size", i32 4}
!1 = !{i32 7, !"PIC Level", i32 2}
!2 = !{i32 7, !"PIE Level", i32 2}
!3 = !{i32 7, !"uwtable", i32 1}
!4 = !{!"clang version 13.0.0"}
!5 = distinct !{!5, !6}
!6 = !{!"llvm.loop.mustprogress"}
!7 = !{!8, !8, i64 0}
!8 = !{!"omnipotent char", !9, i64 0}
!9 = !{!"Simple C++ TBAA"}
!10 = !{!11, !11, i64 0}
!11 = !{!"vtable pointer", !9, i64 0}
!12 = !{!13, !14, i64 240}
!13 = !{!"_ZTSSt9basic_iosIcSt11char_traitsIcEE", !14, i64 216, !8, i64 224, !15, i64 225, !14, i64 232, !14, i64 240, !14, i64 248, !14, i64 256}
!14 = !{!"any pointer", !8, i64 0}
!15 = !{!"bool", !8, i64 0}
!16 = !{!17, !8, i64 56}
!17 = !{!"_ZTSSt5ctypeIcE", !14, i64 16, !15, i64 24, !14, i64 32, !14, i64 40, !14, i64 48, !8, i64 56, !8, i64 57, !8, i64 313, !8, i64 569}
!18 = distinct !{!18, !6}
!19 = distinct !{!19, !6}
!20 = distinct !{!20, !6}
